target datalayout = "e-m:e-p270:32:32-p271:32:32-p272:64:64-i64:64-i128:128-f80:128-n8:16:32:64-S128"
target triple = "x86_64-pc-linux-gnu"

%struct.pmix_mca_base_framework_t = type { ptr, ptr, ptr, ptr, ptr, ptr, i32, i32, ptr, ptr, i32, i32, %struct.pmix_list_t, %struct.pmix_list_t }
%struct.pmix_list_t = type { %struct.pmix_object_t, %struct.pmix_list_item_t, i64 }
%struct.pmix_object_t = type { %union.pthread_mutex_t, ptr, i32, %struct.pmix_tma }
%union.pthread_mutex_t = type { %struct.__pthread_mutex_s }
%struct.__pthread_mutex_s = type { i32, i32, i32, i32, i32, i16, i16, %struct.__pthread_internal_list }
%struct.__pthread_internal_list = type { ptr, ptr }
%struct.pmix_tma = type { ptr, ptr, ptr, ptr, ptr, ptr, ptr, ptr }
%struct.pmix_list_item_t = type { %struct.pmix_object_t, ptr, ptr, i32 }
%struct.pmix_output_desc_t = type { i8, i8, i32, i8, i32, ptr, ptr, i32, ptr, i32, i8, i8, i8, i8, ptr, i32, i32 }
%struct.pmix_pgpu_globals_t = type { %struct.pmix_list_t, %struct.pmix_list_t, i8 }
%struct.pmix_pgpu_base_active_module_t = type { %struct.pmix_list_item_t, i32, ptr, ptr }
%struct.pmix_pgpu_module_t = type { ptr, ptr, ptr, ptr, ptr, ptr, ptr, ptr, ptr, ptr, ptr }

@pmix_pgpu_base_framework = external global %struct.pmix_mca_base_framework_t, align 8
@pmix_output_info = external global [0 x %struct.pmix_output_desc_t], align 8
@pmix_pgpu_globals = external global %struct.pmix_pgpu_globals_t, align 8
@.str.6 = private unnamed_addr constant [33 x i8] c"pgpu: local_app_finalized called\00", align 1

; Function Attrs: inlinehint nounwind uwtable
define internal i64 @pmix_list_get_size(ptr noundef %0) #3 {
  %2 = alloca ptr, align 8
  store ptr %0, ptr %2, align 8, !tbaa !12
  %3 = load ptr, ptr %2, align 8, !tbaa !12
  %4 = getelementptr inbounds nuw %struct.pmix_list_t, ptr %3, i32 0, i32 2
  %5 = load volatile i64, ptr %4, align 8, !tbaa !74
  ret i64 %5
}

; Function Attrs: nounwind uwtable
define void @pmix_pgpu_base_local_app_finalized(ptr noundef %0) #0 {
  %2 = alloca ptr, align 8
  %3 = alloca ptr, align 8
  %4 = alloca i32, align 4
  store ptr %0, ptr %2, align 8, !tbaa !27
  call void @llvm.lifetime.start.p0(i64 8, ptr %3) #11
  %5 = load i32, ptr getelementptr inbounds nuw (%struct.pmix_mca_base_framework_t, ptr @pmix_pgpu_base_framework, i32 0, i32 11), align 4, !tbaa !14
  %6 = icmp sge i32 %5, 0
  br i1 %6, label %7, label %19

7:                                                ; preds = %1
  %8 = load i32, ptr getelementptr inbounds nuw (%struct.pmix_mca_base_framework_t, ptr @pmix_pgpu_base_framework, i32 0, i32 11), align 4, !tbaa !14
  %9 = icmp slt i32 %8, 64
  br i1 %9, label %10, label %19

10:                                               ; preds = %7
  %11 = load i32, ptr getelementptr inbounds nuw (%struct.pmix_mca_base_framework_t, ptr @pmix_pgpu_base_framework, i32 0, i32 11), align 4, !tbaa !14
  %12 = sext i32 %11 to i64
  %13 = getelementptr inbounds [0 x %struct.pmix_output_desc_t], ptr @pmix_output_info, i64 0, i64 %12
  %14 = getelementptr inbounds nuw %struct.pmix_output_desc_t, ptr %13, i32 0, i32 2
  %15 = load i32, ptr %14, align 4, !tbaa !24
  %16 = icmp sge i32 %15, 2
  br i1 %16, label %17, label %19

17:                                               ; preds = %10
  %18 = load i32, ptr getelementptr inbounds nuw (%struct.pmix_mca_base_framework_t, ptr @pmix_pgpu_base_framework, i32 0, i32 11), align 4, !tbaa !14
  call void (i32, ptr, ...) @pmix_output(i32 noundef %18, ptr noundef @.str.6)
  br label %19

19:                                               ; preds = %17, %10, %7, %1
  %20 = load ptr, ptr %2, align 8, !tbaa !27
  %21 = icmp eq ptr null, %20
  br i1 %21, label %22, label %23

22:                                               ; preds = %19
  store i32 1, ptr %4, align 4
  br label %52

23:                                               ; preds = %19
  %24 = call i64 @pmix_list_get_size(ptr noundef @pmix_pgpu_globals)
  %25 = icmp eq i64 0, %24
  br i1 %25, label %26, label %27

26:                                               ; preds = %23
  store i32 1, ptr %4, align 4
  br label %52

27:                                               ; preds = %23
  %28 = load ptr, ptr getelementptr inbounds nuw (%struct.pmix_list_item_t, ptr getelementptr inbounds nuw (%struct.pmix_list_t, ptr @pmix_pgpu_globals, i32 0, i32 1), i32 0, i32 1), align 8, !tbaa !63
  store ptr %28, ptr %3, align 8, !tbaa !65
  br label %29

29:                                               ; preds = %47, %27
  %30 = load ptr, ptr %3, align 8, !tbaa !65
  %31 = icmp ne ptr %30, getelementptr inbounds nuw (%struct.pmix_list_t, ptr @pmix_pgpu_globals, i32 0, i32 1)
  br i1 %31, label %32, label %51

32:                                               ; preds = %29
  %33 = load ptr, ptr %3, align 8, !tbaa !65
  %34 = getelementptr inbounds nuw %struct.pmix_pgpu_base_active_module_t, ptr %33, i32 0, i32 2
  %35 = load ptr, ptr %34, align 8, !tbaa !67
  %36 = getelementptr inbounds nuw %struct.pmix_pgpu_module_t, ptr %35, i32 0, i32 7
  %37 = load ptr, ptr %36, align 8, !tbaa !115
  %38 = icmp ne ptr null, %37
  br i1 %38, label %39, label %46

39:                                               ; preds = %32
  %40 = load ptr, ptr %3, align 8, !tbaa !65
  %41 = getelementptr inbounds nuw %struct.pmix_pgpu_base_active_module_t, ptr %40, i32 0, i32 2
  %42 = load ptr, ptr %41, align 8, !tbaa !67
  %43 = getelementptr inbounds nuw %struct.pmix_pgpu_module_t, ptr %42, i32 0, i32 7
  %44 = load ptr, ptr %43, align 8, !tbaa !115
  %45 = load ptr, ptr %2, align 8, !tbaa !27
  call void %44(ptr noundef %45)
  br label %46

46:                                               ; preds = %39, %32
  br label %47

47:                                               ; preds = %46
  %48 = load ptr, ptr %3, align 8, !tbaa !65
  %49 = getelementptr inbounds nuw %struct.pmix_list_item_t, ptr %48, i32 0, i32 1
  %50 = load ptr, ptr %49, align 8, !tbaa !50
  store ptr %50, ptr %3, align 8, !tbaa !65
  br label %29, !llvm.loop !116

51:                                               ; preds = %29
  store i32 1, ptr %4, align 4
  br label %52

52:                                               ; preds = %51, %26, %22
  call void @llvm.lifetime.end.p0(i64 8, ptr %3) #11
  ret void
}