; Function Attrs: nounwind uwtable
define void @pmix_pgpu_base_local_app_finalized(ptr noundef %0) local_unnamed_addr #0 {
  %2 = load i32, ptr getelementptr inbounds nuw (i8, ptr @pmix_pgpu_base_framework, i64 76), align 4, !tbaa !3
  %or.cond = icmp ult i32 %2, 64
  br i1 %or.cond, label %3, label %9

3:                                                ; preds = %1
  %4 = zext nneg i32 %2 to i64
  %5 = getelementptr inbounds nuw [0 x %struct.pmix_output_desc_t], ptr @pmix_output_info, i64 0, i64 %4, i32 2
  %6 = load i32, ptr %5, align 4, !tbaa !18
  %7 = icmp sgt i32 %6, 1
  br i1 %7, label %8, label %9

8:                                                ; preds = %3
  tail call void (i32, ptr, ...) @pmix_output(i32 noundef %2, ptr noundef nonnull @.str.6) #11
  br label %9

9:                                                ; preds = %8, %3, %1
  %10 = icmp eq ptr %0, null
  br i1 %10, label %.loopexit, label %11

11:                                               ; preds = %9
  %12 = load volatile i64, ptr getelementptr inbounds nuw (i8, ptr @pmix_pgpu_globals, i64 264), align 8, !tbaa !21
  %13 = icmp eq i64 %12, 0
  %.011 = load ptr, ptr getelementptr inbounds nuw (i8, ptr @pmix_pgpu_globals, i64 240), align 8
  %.not12 = icmp eq ptr %.011, getelementptr inbounds nuw (i8, ptr @pmix_pgpu_globals, i64 120)
  %or.cond14 = select i1 %13, i1 true, i1 %.not12
  br i1 %or.cond14, label %.loopexit, label %.lr.ph

.lr.ph:                                           ; preds = %11, %19
  %.013 = phi ptr [ %.0, %19 ], [ %.011, %11 ]
  %14 = getelementptr inbounds nuw i8, ptr %.013, i64 152
  %15 = load ptr, ptr %14, align 8, !tbaa !66
  %16 = getelementptr inbounds nuw i8, ptr %15, i64 56
  %17 = load ptr, ptr %16, align 8, !tbaa !86
  %.not10 = icmp eq ptr %17, null
  br i1 %.not10, label %19, label %18

18:                                               ; preds = %.lr.ph
  tail call void %17(ptr noundef nonnull %0) #11
  br label %19

19:                                               ; preds = %.lr.ph, %18
  %20 = getelementptr inbounds nuw i8, ptr %.013, i64 120
  %.0 = load ptr, ptr %20, align 8, !tbaa !22
  %.not = icmp eq ptr %.0, getelementptr inbounds nuw (i8, ptr @pmix_pgpu_globals, i64 120)
  br i1 %.not, label %.loopexit, label %.lr.ph, !llvm.loop !87

.loopexit:                                        ; preds = %19, %11, %9
  ret void
}